; Function Attrs: mustprogress uwtable
define noundef i64 @_Z10readOtherEPvjjP8_IO_FILE(ptr nocapture noundef writeonly %0, i32 noundef %1, i32 noundef %2, ptr nocapture noundef %3) local_unnamed_addr #9 {
  %.not = icmp eq i32 %2, 0
  br i1 %.not, label %._crit_edge, label %.lr.ph

.lr.ph:                                           ; preds = %4
  %5 = zext i32 %1 to i64
  %.not.i = icmp eq i32 %1, 0
  br i1 %.not.i, label %_ZL9readbeOnePvjP8_IO_FILE.exit.us, label %.lr.ph.i.preheader.preheader

.lr.ph.i.preheader.preheader:                     ; preds = %.lr.ph
  %wide.trip.count = zext i32 %2 to i64
  br label %.lr.ph.i.preheader

_ZL9readbeOnePvjP8_IO_FILE.exit.us:               ; preds = %.lr.ph, %_ZL9readbeOnePvjP8_IO_FILE.exit.us
  %.010.us = phi i32 [ %8, %_ZL9readbeOnePvjP8_IO_FILE.exit.us ], [ 0, %.lr.ph ]
  %6 = tail call noalias noundef nonnull ptr @_Znam(i64 noundef %5) #24
  %7 = tail call i64 @fread(ptr noundef nonnull %6, i64 noundef %5, i64 noundef 1, ptr noundef %3)
  tail call void @_ZdaPv(ptr noundef nonnull %6) #20
  %8 = add nuw i32 %.010.us, 1
  %exitcond13.not = icmp eq i32 %8, %2
  br i1 %exitcond13.not, label %._crit_edge, label %_ZL9readbeOnePvjP8_IO_FILE.exit.us, !llvm.loop !125

.lr.ph.i.preheader:                               ; preds = %.lr.ph.i.preheader.preheader, %_ZL9readbeOnePvjP8_IO_FILE.exit.loopexit
  %indvars.iv = phi i64 [ 0, %.lr.ph.i.preheader.preheader ], [ %indvars.iv.next, %_ZL9readbeOnePvjP8_IO_FILE.exit.loopexit ]
  %9 = trunc i64 %indvars.iv to i32
  %10 = mul i32 %9, %1
  %11 = zext i32 %10 to i64
  %12 = getelementptr inbounds i8, ptr %0, i64 %11
  %13 = tail call noalias noundef nonnull ptr @_Znam(i64 noundef %5) #24
  %14 = tail call i64 @fread(ptr noundef nonnull %13, i64 noundef %5, i64 noundef 1, ptr noundef %3)
  br label %.lr.ph.i

.lr.ph.i:                                         ; preds = %.lr.ph.i.preheader, %.lr.ph.i
  %indvars.iv.i = phi i64 [ %indvars.iv.next.i, %.lr.ph.i ], [ 0, %.lr.ph.i.preheader ]
  %15 = getelementptr inbounds i8, ptr %12, i64 %indvars.iv.i
  %16 = trunc i64 %indvars.iv.i to i32
  %17 = xor i32 %16, -1
  %18 = add i32 %17, %1
  %19 = zext i32 %18 to i64
  %20 = getelementptr inbounds i8, ptr %13, i64 %19
  %21 = load i8, ptr %20, align 1
  store i8 %21, ptr %15, align 1
  %indvars.iv.next.i = add nuw nsw i64 %indvars.iv.i, 1
  %exitcond.not.i = icmp eq i64 %indvars.iv.next.i, %5
  br i1 %exitcond.not.i, label %_ZL9readbeOnePvjP8_IO_FILE.exit.loopexit, label %.lr.ph.i, !llvm.loop !12

_ZL9readbeOnePvjP8_IO_FILE.exit.loopexit:         ; preds = %.lr.ph.i
  tail call void @_ZdaPv(ptr noundef nonnull %13) #20
  %indvars.iv.next = add nuw nsw i64 %indvars.iv, 1
  %exitcond.not = icmp eq i64 %indvars.iv.next, %wide.trip.count
  br i1 %exitcond.not, label %._crit_edge, label %.lr.ph.i.preheader, !llvm.loop !125

._crit_edge:                                      ; preds = %_ZL9readbeOnePvjP8_IO_FILE.exit.loopexit, %_ZL9readbeOnePvjP8_IO_FILE.exit.us, %4
  %22 = mul i32 %2, %1
  %23 = zext i32 %22 to i64
  ret i64 %23
}